; Function Attrs: mustprogress uwtable
define void @_ZN9grpc_core12EndpointList8Endpoint18ResetBackoffLockedEv(ptr nocapture noundef nonnull readonly align 8 dereferenceable(48) %this) local_unnamed_addr #3 align 2 {
entry:
  %child_policy_ = getelementptr inbounds i8, ptr %this, i64 24
  %0 = load ptr, ptr %child_policy_, align 8
  %cmp.i.i.not = icmp eq ptr %0, null
  br i1 %cmp.i.i.not, label %if.end, label %if.then

if.then:                                          ; preds = %entry
  %vtable = load ptr, ptr %0, align 8
  %vfn = getelementptr inbounds i8, ptr %vtable, i64 48
  %1 = load ptr, ptr %vfn, align 8
  tail call void %1(ptr noundef nonnull align 8 dereferenceable(56) %0)
  br label %if.end

if.end:                                           ; preds = %if.then, %entry
  ret void
}